target datalayout = "e-m:e-p270:32:32-p271:32:32-p272:64:64-i64:64-i128:128-f80:128-n8:16:32:64-S128"
target triple = "x86_64-pc-linux-gnu"

%struct.lv_color_t = type { i8, i8, i8 }
%struct._lv_led_t = type { %struct._lv_obj_t, %struct.lv_color_t, i8 }
%struct._lv_obj_t = type { ptr, ptr, ptr, ptr, ptr, %struct.lv_area_t, i32, i16, i16 }
%struct.lv_area_t = type { i32, i32, i32, i32 }

; Function Attrs: nounwind uwtable
define void @lv_led_set_color(ptr noundef %0, i24 %1) #0 {
  %3 = alloca %struct.lv_color_t, align 1
  %4 = alloca ptr, align 8
  %5 = alloca ptr, align 8
  store i24 %1, ptr %3, align 1
  store ptr %0, ptr %4, align 8, !tbaa !8
  br label %6

6:                                                ; preds = %2
  %7 = load ptr, ptr %4, align 8, !tbaa !8
  %8 = icmp ne ptr %7, null
  br i1 %8, label %13, label %9

9:                                                ; preds = %6
  br label %10

10:                                               ; preds = %9
  br label %11

11:                                               ; preds = %10
  br label %12

12:                                               ; preds = %11, %12
  br label %12

13:                                               ; preds = %6
  br label %14

14:                                               ; preds = %13
  call void @llvm.lifetime.start.p0(i64 8, ptr %5) #4
  %15 = load ptr, ptr %4, align 8, !tbaa !8
  store ptr %15, ptr %5, align 8, !tbaa !10
  %16 = load ptr, ptr %5, align 8, !tbaa !10
  %17 = getelementptr inbounds nuw %struct._lv_led_t, ptr %16, i32 0, i32 1
  call void @llvm.memcpy.p0.p0.i64(ptr align 8 %17, ptr align 1 %3, i64 3, i1 false), !tbaa.struct !12
  %18 = load ptr, ptr %4, align 8, !tbaa !8
  call void @lv_obj_invalidate(ptr noundef %18)
  call void @llvm.lifetime.end.p0(i64 8, ptr %5) #4
  ret void
}